; ModuleID = 'source-C-CXX/39/581.c'
source_filename = "source-C-CXX/39/581.c"
target datalayout = "e-m:e-p270:32:32-p271:32:32-p272:64:64-i64:64-f80:128-n8:16:32:64-S128"
target triple = "x86_64-pc-linux-gnu"

@.str = private unnamed_addr constant [16 x i8] c"%lf%lf%lf%lf%lf\00", align 1
@.str.1 = private unnamed_addr constant [14 x i8] c"Invalid input\00", align 1
@.str.2 = private unnamed_addr constant [6 x i8] c"%.4lf\00", align 1

; Function Attrs: nofree nounwind sspstrong uwtable
define dso_local i32 @main(i32 %0, i8** nocapture readnone %1) local_unnamed_addr #0 {
  %3 = alloca double, align 8
  %4 = alloca double, align 8
  %5 = alloca double, align 8
  %6 = alloca double, align 8
  %7 = alloca double, align 8
  %8 = bitcast double* %3 to i8*
  call void @llvm.lifetime.start.p0i8(i64 8, i8* nonnull %8) #4
  %9 = bitcast double* %4 to i8*
  call void @llvm.lifetime.start.p0i8(i64 8, i8* nonnull %9) #4
  %10 = bitcast double* %5 to i8*
  call void @llvm.lifetime.start.p0i8(i64 8, i8* nonnull %10) #4
  %11 = bitcast double* %6 to i8*
  call void @llvm.lifetime.start.p0i8(i64 8, i8* nonnull %11) #4
  %12 = bitcast double* %7 to i8*
  call void @llvm.lifetime.start.p0i8(i64 8, i8* nonnull %12) #4
  %13 = call i32 (i8*, ...) @__isoc99_scanf(i8* getelementptr inbounds ([16 x i8], [16 x i8]* @.str, i64 0, i64 0), double* nonnull %3, double* nonnull %4, double* nonnull %5, double* nonnull %6, double* nonnull %7)
  %14 = load double, double* %3, align 8, !tbaa !5
  %15 = load double, double* %4, align 8, !tbaa !5
  %16 = fadd double %14, %15
  %17 = load double, double* %5, align 8, !tbaa !5
  %18 = fadd double %16, %17
  %19 = load double, double* %6, align 8, !tbaa !5
  %20 = fadd double %18, %19
  %21 = fmul double %20, 5.000000e-01
  %22 = fsub double %21, %14
  %23 = fsub double %21, %15
  %24 = fmul double %22, %23
  %25 = fsub double %21, %17
  %26 = fmul double %25, %24
  %27 = fsub double %21, %19
  %28 = fmul double %27, %26
  %29 = fmul double %14, %15
  %30 = fmul double %29, %17
  %31 = fmul double %30, %19
  %32 = load double, double* %7, align 8, !tbaa !5
  %33 = fmul double %32, 0x400921FB4D12D84A
  %34 = fdiv double %33, 3.600000e+02
  %35 = call double @cos(double %34) #4
  %36 = fmul double %31, %35
  %37 = load double, double* %7, align 8, !tbaa !5
  %38 = fmul double %37, 0x400921FB4D12D84A
  %39 = fdiv double %38, 3.600000e+02
  %40 = call double @cos(double %39) #4
  %41 = fmul double %36, %40
  %42 = fsub double %28, %41
  %43 = fcmp olt double %42, 0.000000e+00
  br i1 %43, label %44, label %46

44:                                               ; preds = %2
  %45 = call i32 (i8*, ...) @printf(i8* nonnull dereferenceable(1) getelementptr inbounds ([14 x i8], [14 x i8]* @.str.1, i64 0, i64 0))
  br label %74

46:                                               ; preds = %2
  %47 = load double, double* %3, align 8, !tbaa !5
  %48 = fsub double %21, %47
  %49 = load double, double* %4, align 8, !tbaa !5
  %50 = fsub double %21, %49
  %51 = fmul double %48, %50
  %52 = load double, double* %5, align 8, !tbaa !5
  %53 = fsub double %21, %52
  %54 = fmul double %51, %53
  %55 = load double, double* %6, align 8, !tbaa !5
  %56 = fsub double %21, %55
  %57 = fmul double %54, %56
  %58 = fmul double %47, %49
  %59 = fmul double %58, %52
  %60 = fmul double %59, %55
  %61 = load double, double* %7, align 8, !tbaa !5
  %62 = fmul double %61, 0x400921FB4D12D84A
  %63 = fdiv double %62, 3.600000e+02
  %64 = call double @cos(double %63) #4
  %65 = fmul double %60, %64
  %66 = load double, double* %7, align 8, !tbaa !5
  %67 = fmul double %66, 0x400921FB4D12D84A
  %68 = fdiv double %67, 3.600000e+02
  %69 = call double @cos(double %68) #4
  %70 = fmul double %65, %69
  %71 = fsub double %57, %70
  %72 = call double @sqrt(double %71) #4
  %73 = call i32 (i8*, ...) @printf(i8* nonnull dereferenceable(1) getelementptr inbounds ([6 x i8], [6 x i8]* @.str.2, i64 0, i64 0), double %72)
  br label %74

74:                                               ; preds = %46, %44
  call void @llvm.lifetime.end.p0i8(i64 8, i8* nonnull %12) #4
  call void @llvm.lifetime.end.p0i8(i64 8, i8* nonnull %11) #4
  call void @llvm.lifetime.end.p0i8(i64 8, i8* nonnull %10) #4
  call void @llvm.lifetime.end.p0i8(i64 8, i8* nonnull %9) #4
  call void @llvm.lifetime.end.p0i8(i64 8, i8* nonnull %8) #4
  ret i32 0
}

; Function Attrs: argmemonly mustprogress nofree nosync nounwind willreturn
declare void @llvm.lifetime.start.p0i8(i64 immarg, i8* nocapture) #1

; Function Attrs: nofree nounwind
declare noundef i32 @__isoc99_scanf(i8* nocapture noundef readonly, ...) local_unnamed_addr #2

; Function Attrs: mustprogress nofree nounwind willreturn
declare double @cos(double) local_unnamed_addr #3

; Function Attrs: nofree nounwind
declare noundef i32 @printf(i8* nocapture noundef readonly, ...) local_unnamed_addr #2

; Function Attrs: mustprogress nofree nounwind willreturn
declare double @sqrt(double) local_unnamed_addr #3

; Function Attrs: argmemonly mustprogress nofree nosync nounwind willreturn
declare void @llvm.lifetime.end.p0i8(i64 immarg, i8* nocapture) #1


!llvm.module.flags = !{!0, !1, !2, !3}
!llvm.ident = !{!4}

!0 = !{i32 1, !"wchar_size", i32 4}
!1 = !{i32 7, !"PIC Level", i32 2}
!2 = !{i32 7, !"PIE Level", i32 2}
!3 = !{i32 7, !"uwtable", i32 1}
!4 = !{!"clang version 13.0.0"}
!5 = !{!6, !6, i64 0}
!6 = !{!"double", !7, i64 0}
!7 = !{!"omnipotent char", !8, i64 0}
!8 = !{!"Simple C/C++ TBAA"}
